target datalayout = "e-m:e-p270:32:32-p271:32:32-p272:64:64-i64:64-i128:128-f80:128-n8:16:32:64-S128"
target triple = "x86_64-pc-linux-gnu"

%struct.GinState = type { ptr, i8, ptr, [32 x ptr], [32 x %struct.FmgrInfo], [32 x %struct.FmgrInfo], [32 x %struct.FmgrInfo], [32 x %struct.FmgrInfo], [32 x %struct.FmgrInfo], [32 x %struct.FmgrInfo], [32 x i8], [32 x i32] }
%struct.FmgrInfo = type { ptr, i32, i16, i8, i8, i8, ptr, ptr, ptr }

; Function Attrs: inlinehint nounwind uwtable
define internal i32 @DatumGetInt32(i64 noundef %0) #2 {
  %2 = alloca i64, align 8
  store i64 %0, ptr %2, align 8
  %3 = load i64, ptr %2, align 8
  %4 = trunc i64 %3 to i32
  ret i32 %4
}

; Function Attrs: nounwind uwtable
define dso_local i32 @ginCompareEntries(ptr noundef %0, i16 noundef zeroext %1, i64 noundef %2, i8 noundef signext %3, i64 noundef %4, i8 noundef signext %5) #0 {
  %7 = alloca i32, align 4
  %8 = alloca ptr, align 8
  %9 = alloca i16, align 2
  %10 = alloca i64, align 8
  %11 = alloca i8, align 1
  %12 = alloca i64, align 8
  %13 = alloca i8, align 1
  store ptr %0, ptr %8, align 8
  store i16 %1, ptr %9, align 2
  store i64 %2, ptr %10, align 8
  store i8 %3, ptr %11, align 1
  store i64 %4, ptr %12, align 8
  store i8 %5, ptr %13, align 1
  %14 = load i8, ptr %11, align 1
  %15 = sext i8 %14 to i32
  %16 = load i8, ptr %13, align 1
  %17 = sext i8 %16 to i32
  %18 = icmp ne i32 %15, %17
  br i1 %18, label %19, label %26

19:                                               ; preds = %6
  %20 = load i8, ptr %11, align 1
  %21 = sext i8 %20 to i32
  %22 = load i8, ptr %13, align 1
  %23 = sext i8 %22 to i32
  %24 = icmp slt i32 %21, %23
  %25 = select i1 %24, i32 -1, i32 1
  store i32 %25, ptr %7, align 4
  br label %51

26:                                               ; preds = %6
  %27 = load i8, ptr %11, align 1
  %28 = sext i8 %27 to i32
  %29 = icmp ne i32 %28, 0
  br i1 %29, label %30, label %31

30:                                               ; preds = %26
  store i32 0, ptr %7, align 4
  br label %51

31:                                               ; preds = %26
  %32 = load ptr, ptr %8, align 8
  %33 = getelementptr inbounds nuw %struct.GinState, ptr %32, i32 0, i32 4
  %34 = load i16, ptr %9, align 2
  %35 = zext i16 %34 to i32
  %36 = sub i32 %35, 1
  %37 = sext i32 %36 to i64
  %38 = getelementptr inbounds [32 x %struct.FmgrInfo], ptr %33, i64 0, i64 %37
  %39 = load ptr, ptr %8, align 8
  %40 = getelementptr inbounds nuw %struct.GinState, ptr %39, i32 0, i32 11
  %41 = load i16, ptr %9, align 2
  %42 = zext i16 %41 to i32
  %43 = sub i32 %42, 1
  %44 = sext i32 %43 to i64
  %45 = getelementptr inbounds [32 x i32], ptr %40, i64 0, i64 %44
  %46 = load i32, ptr %45, align 4
  %47 = load i64, ptr %10, align 8
  %48 = load i64, ptr %12, align 8
  %49 = call i64 @FunctionCall2Coll(ptr noundef %38, i32 noundef %46, i64 noundef %47, i64 noundef %48)
  %50 = call i32 @DatumGetInt32(i64 noundef %49)
  store i32 %50, ptr %7, align 4
  br label %51

51:                                               ; preds = %31, %30, %19
  %52 = load i32, ptr %7, align 4
  ret i32 %52
}