; Function Attrs: nounwind uwtable
define dso_local i32 @ginCompareEntries(ptr noundef %0, i16 noundef zeroext %1, i64 noundef %2, i8 noundef signext %3, i64 noundef %4, i8 noundef signext %5) local_unnamed_addr #0 {
  %.not = icmp eq i8 %3, %5
  br i1 %.not, label %10, label %7

7:                                                ; preds = %6
  %8 = icmp slt i8 %3, %5
  %9 = select i1 %8, i32 -1, i32 1
  br label %21

10:                                               ; preds = %6
  %.not13 = icmp eq i8 %3, 0
  br i1 %.not13, label %11, label %21

11:                                               ; preds = %10
  %12 = getelementptr inbounds nuw i8, ptr %0, i64 280
  %13 = zext i16 %1 to i64
  %14 = add nsw i64 %13, -1
  %15 = getelementptr inbounds [32 x %struct.FmgrInfo], ptr %12, i64 0, i64 %14
  %16 = getelementptr inbounds nuw i8, ptr %0, i64 9528
  %17 = getelementptr inbounds [32 x i32], ptr %16, i64 0, i64 %14
  %18 = load i32, ptr %17, align 4
  %19 = tail call i64 @FunctionCall2Coll(ptr noundef nonnull %15, i32 noundef %18, i64 noundef %2, i64 noundef %4) #7
  %20 = trunc i64 %19 to i32
  br label %21

21:                                               ; preds = %10, %11, %7
  %.0 = phi i32 [ %9, %7 ], [ %20, %11 ], [ 0, %10 ]
  ret i32 %.0
}